; Function Attrs: mustprogress uwtable
define noundef signext i8 @_ZNK6icu_7513TimeZoneNames19MatchInfoCollection15getMetaZoneIDAtEiRNS_13UnicodeStringE(ptr nocapture noundef nonnull readonly align 8 dereferenceable(16) %this, i32 noundef %idx, ptr noundef nonnull align 8 dereferenceable(64) %mzID) local_unnamed_addr #1 align 2 {
entry:
  %fUnion.i.i = getelementptr inbounds i8, ptr %mzID, i64 8
  %0 = load i16, ptr %fUnion.i.i, align 8
  %conv2.i3.i = and i16 %0, 1
  %tobool.not.i = icmp eq i16 %conv2.i3.i, 0
  %1 = and i16 %0, 30
  %storemerge.i = select i1 %tobool.not.i, i16 %1, i16 2
  store i16 %storemerge.i, ptr %fUnion.i.i, align 8
  %fMatches = getelementptr inbounds i8, ptr %this, i64 8
  %2 = load ptr, ptr %fMatches, align 8
  %call2 = tail call noundef ptr @_ZNK6icu_757UVector9elementAtEi(ptr noundef nonnull align 8 dereferenceable(40) %2, i32 noundef %idx)
  %tobool.not = icmp eq ptr %call2, null
  br i1 %tobool.not, label %return, label %land.lhs.true

land.lhs.true:                                    ; preds = %entry
  %isTZID = getelementptr inbounds i8, ptr %call2, i64 76
  %3 = load i8, ptr %isTZID, align 4
  %tobool3.not = icmp eq i8 %3, 0
  br i1 %tobool3.not, label %if.then, label %return

if.then:                                          ; preds = %land.lhs.true
  %id = getelementptr inbounds i8, ptr %call2, i64 8
  %call.i = tail call noundef nonnull align 8 dereferenceable(64) ptr @_ZN6icu_7513UnicodeString8copyFromERKS0_a(ptr noundef nonnull align 8 dereferenceable(64) %mzID, ptr noundef nonnull align 8 dereferenceable(64) %id, i8 noundef signext 0)
  br label %return

return:                                           ; preds = %entry, %land.lhs.true, %if.then
  %retval.0 = phi i8 [ 1, %if.then ], [ 0, %land.lhs.true ], [ 0, %entry ]
  ret i8 %retval.0
}